; Function Attrs: mustprogress uwtable
define void @_Z19_gmx_sel_free_lexerPv(ptr noundef %0) local_unnamed_addr #0 {
  %2 = tail call noundef ptr @_Z20_gmx_sel_yyget_extraPv(ptr noundef %0)
  %3 = getelementptr inbounds i8, ptr %2, i64 88
  %4 = load ptr, ptr %3, align 8
  tail call void @_Z9save_freePKcS0_iPv(ptr noundef nonnull @.str.5, ptr noundef nonnull @.str.1, i32 noundef 391, ptr noundef %4)
  %5 = getelementptr inbounds i8, ptr %2, i64 143
  %6 = load i8, ptr %5, align 1
  %7 = trunc i8 %6 to i1
  br i1 %7, label %8, label %11

8:                                                ; preds = %1
  %9 = getelementptr inbounds i8, ptr %2, i64 144
  %10 = load ptr, ptr %9, align 8
  tail call void @_Z25_gmx_sel_yy_delete_bufferP15yy_buffer_statePv(ptr noundef %10, ptr noundef %0)
  br label %11

11:                                               ; preds = %1, %8
  %12 = getelementptr inbounds i8, ptr %2, i64 48
  tail call void @_ZNSt7__cxx1112basic_stringIcSt11char_traitsIcESaIcEED1Ev(ptr noundef nonnull align 8 dereferenceable(32) %12) #13
  %13 = getelementptr inbounds i8, ptr %2, i64 8
  %14 = load ptr, ptr %13, align 8
  %.not.i.i = icmp eq ptr %14, null
  br i1 %.not.i.i, label %16, label %15

15:                                               ; preds = %11
  tail call void @_ZNSt15__exception_ptr13exception_ptr10_M_releaseEv(ptr noundef nonnull align 8 dereferenceable(8) %13) #13
  br label %16

16:                                               ; preds = %15, %11
  tail call void @_ZdlPv(ptr noundef nonnull %2) #17
  %17 = tail call noundef i32 @_Z22_gmx_sel_yylex_destroyPv(ptr noundef %0)
  ret void
}